; Function Attrs: nounwind uwtable
define hidden ptr @SDL_GetJoystickName_REAL(ptr noundef %0) local_unnamed_addr #1 {
  %2 = tail call i32 @SDL_AddAtomicInt_REAL(ptr noundef nonnull @SDL_joystick_lock_pending, i32 noundef 1) #13
  %3 = load ptr, ptr @SDL_joystick_lock, align 8
  tail call void @SDL_LockMutex_REAL(ptr noundef %3) #13
  %4 = tail call i32 @SDL_AddAtomicInt_REAL(ptr noundef nonnull @SDL_joystick_lock_pending, i32 noundef -1) #13
  %5 = load i32, ptr @SDL_joysticks_locked, align 4
  %6 = add nsw i32 %5, 1
  store i32 %6, ptr @SDL_joysticks_locked, align 4
  %7 = tail call zeroext i1 @SDL_ObjectValid(ptr noundef %0, i32 noundef 4) #13
  br i1 %7, label %20, label %8

8:                                                ; preds = %1
  %9 = tail call zeroext i1 (ptr, ...) @SDL_SetError_REAL(ptr noundef nonnull @.str.2, ptr noundef nonnull @.str.3) #13
  %10 = load i32, ptr @SDL_joysticks_locked, align 4
  %11 = add nsw i32 %10, -1
  store i32 %11, ptr @SDL_joysticks_locked, align 4
  %.b4.i = load i1, ptr @SDL_joysticks_initialized, align 1
  %12 = icmp ne i32 %11, 0
  %or.cond.i = select i1 %.b4.i, i1 true, i1 %12
  br i1 %or.cond.i, label %.critedge.i, label %13

13:                                               ; preds = %8
  %14 = tail call i32 @SDL_GetAtomicInt_REAL(ptr noundef nonnull @SDL_joystick_lock_pending) #13
  %15 = icmp eq i32 %14, 0
  br i1 %15, label %16, label %.critedge.i

16:                                               ; preds = %13
  %17 = load ptr, ptr @SDL_joystick_lock, align 8
  tail call void @SDL_LockMutex_REAL(ptr noundef %17) #13
  %18 = load ptr, ptr @SDL_joystick_lock, align 8
  tail call void @SDL_UnlockMutex_REAL(ptr noundef %18) #13
  store ptr null, ptr @SDL_joystick_lock, align 8
  tail call void @SDL_UnlockMutex_REAL(ptr noundef %17) #13
  tail call void @SDL_DestroyMutex_REAL(ptr noundef %17) #13
  br label %SDL_UnlockJoysticks_REAL.exit

.critedge.i:                                      ; preds = %13, %8
  %19 = load ptr, ptr @SDL_joystick_lock, align 8
  tail call void @SDL_UnlockMutex_REAL(ptr noundef %19) #13
  br label %SDL_UnlockJoysticks_REAL.exit

20:                                               ; preds = %1
  %21 = load i32, ptr %0, align 8
  %22 = tail call zeroext i1 @SDL_SteamVirtualGamepadEnabled() #13
  br i1 %22, label %23, label %SDL_GetJoystickVirtualGamepadInfoForID.exit.thread

23:                                               ; preds = %20
  %.not.i.i = icmp eq i32 %21, 0
  br i1 %.not.i.i, label %SDL_GetDriverAndJoystickIndex.exit.i, label %.preheader.i.i

.preheader.i.i:                                   ; preds = %23, %._crit_edge.i.i
  %indvars.iv.i.i = phi i64 [ %indvars.iv.next.i.i, %._crit_edge.i.i ], [ 0, %23 ]
  %24 = getelementptr inbounds nuw [3 x ptr], ptr @SDL_joystick_drivers, i64 0, i64 %indvars.iv.i.i
  %25 = load ptr, ptr %24, align 8
  %26 = getelementptr inbounds nuw i8, ptr %25, i64 8
  %27 = load ptr, ptr %26, align 8
  %28 = tail call i32 %27() #13
  %29 = icmp sgt i32 %28, 0
  br i1 %29, label %.lr.ph.i.i, label %._crit_edge.i.i

.lr.ph.i.i:                                       ; preds = %.preheader.i.i
  %30 = getelementptr inbounds nuw i8, ptr %25, i64 80
  br label %31

31:                                               ; preds = %.critedge.i.i, %.lr.ph.i.i
  %.01824.i.i = phi i32 [ 0, %.lr.ph.i.i ], [ %34, %.critedge.i.i ]
  %32 = load ptr, ptr %30, align 8
  %33 = tail call i32 %32(i32 noundef %.01824.i.i) #13
  %.not22.i.i = icmp eq i32 %33, %21
  br i1 %.not22.i.i, label %SDL_GetJoystickVirtualGamepadInfoForID.exit, label %.critedge.i.i

.critedge.i.i:                                    ; preds = %31
  %34 = add nuw nsw i32 %.01824.i.i, 1
  %exitcond.not.i.i = icmp eq i32 %34, %28
  br i1 %exitcond.not.i.i, label %._crit_edge.i.i, label %31, !llvm.loop !13

._crit_edge.i.i:                                  ; preds = %.critedge.i.i, %.preheader.i.i
  %indvars.iv.next.i.i = add nuw nsw i64 %indvars.iv.i.i, 1
  %exitcond29.not.i.i = icmp eq i64 %indvars.iv.next.i.i, 3
  br i1 %exitcond29.not.i.i, label %SDL_GetDriverAndJoystickIndex.exit.i, label %.preheader.i.i, !llvm.loop !14

SDL_GetDriverAndJoystickIndex.exit.i:             ; preds = %._crit_edge.i.i, %23
  %35 = tail call zeroext i1 (ptr, ...) @SDL_SetError_REAL(ptr noundef nonnull @.str.43, i32 noundef %21) #13
  br label %SDL_GetJoystickVirtualGamepadInfoForID.exit.thread

SDL_GetJoystickVirtualGamepadInfoForID.exit:      ; preds = %31
  %36 = getelementptr inbounds nuw i8, ptr %25, i64 48
  %37 = load ptr, ptr %36, align 8
  %38 = tail call i32 %37(i32 noundef %.01824.i.i) #13
  %39 = tail call ptr @SDL_GetSteamVirtualGamepadInfo(i32 noundef %38) #13
  %.not = icmp eq ptr %39, null
  br i1 %.not, label %SDL_GetJoystickVirtualGamepadInfoForID.exit.thread, label %40

SDL_GetJoystickVirtualGamepadInfoForID.exit.thread: ; preds = %20, %SDL_GetDriverAndJoystickIndex.exit.i, %SDL_GetJoystickVirtualGamepadInfoForID.exit
  br label %40

40:                                               ; preds = %SDL_GetJoystickVirtualGamepadInfoForID.exit, %SDL_GetJoystickVirtualGamepadInfoForID.exit.thread
  %.sink = phi ptr [ %0, %SDL_GetJoystickVirtualGamepadInfoForID.exit.thread ], [ %39, %SDL_GetJoystickVirtualGamepadInfoForID.exit ]
  %41 = getelementptr inbounds nuw i8, ptr %.sink, i64 8
  %42 = load ptr, ptr %41, align 8
  %43 = tail call ptr @SDL_GetPersistentString(ptr noundef %42) #13
  %44 = load i32, ptr @SDL_joysticks_locked, align 4
  %45 = add nsw i32 %44, -1
  store i32 %45, ptr @SDL_joysticks_locked, align 4
  %.b4.i9 = load i1, ptr @SDL_joysticks_initialized, align 1
  %46 = icmp ne i32 %45, 0
  %or.cond.i10 = select i1 %.b4.i9, i1 true, i1 %46
  br i1 %or.cond.i10, label %.critedge.i11, label %47

47:                                               ; preds = %40
  %48 = tail call i32 @SDL_GetAtomicInt_REAL(ptr noundef nonnull @SDL_joystick_lock_pending) #13
  %49 = icmp eq i32 %48, 0
  br i1 %49, label %50, label %.critedge.i11

50:                                               ; preds = %47
  %51 = load ptr, ptr @SDL_joystick_lock, align 8
  tail call void @SDL_LockMutex_REAL(ptr noundef %51) #13
  %52 = load ptr, ptr @SDL_joystick_lock, align 8
  tail call void @SDL_UnlockMutex_REAL(ptr noundef %52) #13
  store ptr null, ptr @SDL_joystick_lock, align 8
  tail call void @SDL_UnlockMutex_REAL(ptr noundef %51) #13
  tail call void @SDL_DestroyMutex_REAL(ptr noundef %51) #13
  br label %SDL_UnlockJoysticks_REAL.exit

.critedge.i11:                                    ; preds = %47, %40
  %53 = load ptr, ptr @SDL_joystick_lock, align 8
  tail call void @SDL_UnlockMutex_REAL(ptr noundef %53) #13
  br label %SDL_UnlockJoysticks_REAL.exit

SDL_UnlockJoysticks_REAL.exit:                    ; preds = %.critedge.i11, %50, %.critedge.i, %16
  %.0 = phi ptr [ null, %16 ], [ null, %.critedge.i ], [ %43, %50 ], [ %43, %.critedge.i11 ]
  ret ptr %.0
}